(dp0
S'c4bb4e5f4a8d66a1654f0320bd0cb4adccdb1449'
p1
S'None'
p2
sS'f64e9ffbd8f93d1c9d89f7e7bc6d72a6c80cb7e0'
p3
g2
sS'3997b210dc277995284f7ab6fc496dcbdfac7012'
p4
g2
sS'27bb2eca315c6c0a0eb49af4402cc5c81815047c'
p5
g2
sS'26b21522c2d613f3b661042b723808fbcd7607f8'
p6
g2
sS'a9cb1d7084e062a21380462cbc18c06cb40657f8'
p7
g2
sS'c1f096042b9eb22da2c1e796101741e8d22c0875'
p8
g2
sS'f05ab881758110178432379dcc96b9f448abba20'
p9
g2
sS'3b39893928a6260715abc483f39638b597990565'
p10
g2
sS'81c365726cd49c37ba1640d429fde089362ea074'
p11
g2
sS'f4ed25146ca4fe6be7e2838dd469df7279293680'
p12
g2
sS'042ed4ed9d2fff922299e22b4510f8f66353d6c6'
p13
g2
sS'477ccbdfd49be63e8e7302a9f43343b56d221c76'
p14
g2
sS'493c04000f830efbe068c743b830ef27b99c1baf'
p15
g2
sS'e917136ad3d8f39f34fa41f059a602fa72347a59'
p16
g2
sS'a429aaf66e8497b3bf988ac066fcf4205cbe80b2'
p17
g2
sS'79414010fb11b36c41036c62dff9d8415f803035'
p18
g2
sS'47ffed3ceed85f4e2c97cfec055f7ca4301616f3'
p19
g2
sS'70df53f20f22f3a591a1e3dbf30fb6c934be1c78'
p20
g2
sS'712a2bbf1c00dc92046990106b2c92c63bc4eb4c'
p21
g2
sS'98902be3bf41f6a7a3587cb63a1fddb6b9a89dfb'
p22
g2
sS'e44bd207d469646e4da0dc80d95fd8a302bb9950'
p23
g2
sS'c2554925ed4d72523a4ec2acbcb825890de6c6d6'
p24
g2
sS'1b1e0eb6ecd98e9eb87e40bda7f73feeb7fd3941'
p25
g2
sS'd47280ea046ba84e7f971855734036d1fdcf0462'
p26
g2
sS'6f7ed36f2c2458a7954c129ef4d4d624d0499206'
p27
g2
sS'a09c45c4e9cf76ff904356b0e6f6a6a7eaded7cc'
p28
g2
sS'ff56e041d4c5e669d27f0409bb92b3c7e2332f82'
p29
g2
sS'cf1e69b859b10929c09743987d4b20294a2b1839'
p30
g2
sS'65cd32216f94c8e77a5169376843d54a4cd34818'
p31
g2
sS'c0d9831515530f29875a56df997657f62a505577'
p32
g2
sS'd1a8929872216089864d4f28f9c27b2a648d7302'
p33
g2
sS'd25572552b2ac5cf906555674ad9ed95c3acb41e'
p34
g2
sS'6dace6eee8965d77818f5683873f347d9fb8a0f3'
p35
g2
sS'558dbe1cbef23cc2ccb05e70f5b0e3db9fb497b5'
p36
g2
sS'330dc8a30f27f6d95f60ee4ffe38d3ceb413b4cf'
p37
g2
sS'1e293bc90a2a0d53340c96e74c9391049f4e7165'
p38
g2
sS'0bedc37ca32128cd67b33b874c606c8ad0c85bdd'
p39
g2
sS'ea23ca50c0d3ba5e51a5d00c4811b99b889a521a'
p40
g2
sS'93a0dc2da3e3e3f1421b8e7afeb07553aa46af83'
p41
g2
sS'6aef11a7fa3f40672544b1b6a558e79e53dda274'
p42
g2
sS'283b209ecdc5be4d81e5340255c4cd1677eb5e2a'
p43
g2
sS'23eb7ee2b16bcde91d893116fb64b3ed19a727af'
p44
g2
sS'158a71b9d4e918ee1281ae063abada4dc12e2197'
p45
g2
sS'cd6ef3010940e54171612cb5ec09a52f3ad94e49'
p46
g2
sS'ca7add2ce5294909e935788ad2fe3c85e8754c8d'
p47
g2
sS'fd79226f601fe728ce0204690d2dcc9b9a212575'
p48
g2
sS'510c6824eb98eed44e587ee84c82e95017d084ec'
p49
g2
sS'ee535a06d67f94af89fd74468f75e29a0b559584'
p50
g2
sS'4a729f1d7249517bdeeeb1f8f936bdf6b0257b78'
p51
g2
sS'e685cad3356eadbe1e5fa6a9260f2687f76b81c6'
p52
g2
sS'22544fd1c33acaa3237aba35d5dc057bdf837295'
p53
g2
sS'a75957a85f462162b69c393d977665365d397503'
p54
g2
sS'92726d0df522d8a9acba039b874aa06c098c9ca0'
p55
g2
sS'bec13b0de21924de0c1d346db42331562e5c9d01'
p56
g2
sS'8ca21b82406e052fa9a61c34645ec51b14d70951'
p57
g2
sS'3f037ead2724697c7b754ecd47757d1ef07425ae'
p58
g2
sS'171b4e8a6ea730f24f92c7c1c88fdd7d962a022d'
p59
g2
sS'c2cf1e242930de1b5a51990b4691800a21813c80'
p60
g2
sS'ab12905e24790e50c1447043c29a5377db66e5f2'
p61
g2
sS'727071b0be674a21f90620bc79f2b1ba2dbbdace'
p62
g2
sS'2bedb96aa11e3cff4bf25816c9a10b56354c2d87'
p63
g2
sS'c301a2bd8c16bb6a445b8593da9d1b7a775c5e04'
p64
g2
sS'e5c05c8bbe2465a2eb057603d5fc8c8aca263442'
p65
g2
sS'993e09371df830e7ceee691b8fa7af47c378f0d1'
p66
g2
sS'e17ec980fda5d91e5123bfa8350973f8e48623c0'
p67
g2
sS'5a1c63794ee8b8776ec6fce13e207c248725ad40'
p68
g2
sS'bc9cc5dbe9133377d0503c9a7165ee477d18eef6'
p69
g2
sS'6a98af9591b1bb23fffe55a03989ac1fc035b387'
p70
g2
sS'5e2a6951991507fd6b37a09d3c5a3760c8f909de'
p71
g2
sS'087fd3d5ab681c96a7dd25576edbc54e3a662040'
p72
g2
sS'935be113b3ad3023b102ec00ba0272315a6d27e7'
p73
g2
sS'85004f0f9b73d7504606be5ccd0cc08688129eb1'
p74
g2
sS'25faf58db2525ca8f40b92656ce519e46b68df94'
p75
g2
sS'4ef26a1243d55c0017fb6c67f54962afccd80a36'
p76
g2
sS'b3b1250c98d35e8df955cf879a7df149a70852ca'
p77
g2
sS'f92371a5d45b872757a8f5aabd5e0959fcc056e6'
p78
g2
sS'ba2ecf40976671caac94963e514a0c4fdca65946'
p79
g2
sS'47a76b89e0f4c1d1a92593cb0d1e8d6d94328372'
p80
g2
sS'9a77beb1c9566cdcd3b1bb9dc2bc7b37d448fd92'
p81
g2
sS'aacbb5f464aff6d86d839f52f6710b3d8d252b41'
p82
g2
sS'18757cfccf7619d87483d4f1b3cc085ad2dd26c1'
p83
g2
sS'be191b1f686a497eff7b9f4d3f89db8ad88b8550'
p84
g2
sS'e272e8f08d965dc6bb022dbe9040007950a1a11b'
p85
g2
sS'03238ecf179f95e8cad02082bb7199f29a26c07c'
p86
g2
sS'e1a6d06d6553c3b2026304f5379c3737f1743e46'
p87
g2
sS'5f6452b1d0d964c2c662f406860ed2c3c45bbb08'
p88
g2
sS'5f2d65c8fd62458699f6a2270319125bbdd4a4b4'
p89
g2
sS'05c3750fb7c2f2c7f652a6008813a9f84c86da17'
p90
g2
sS'75bc1479df83274dbdefc344fef88921a91b4c19'
p91
g2
sS'0b72856ad3004480106409029f1e25c743d9a255'
p92
g2
sS'3405a14d7ae8a3d7ec71b1601bf1bdc3b0e53146'
p93
g2
sS'78420851bc337a7146c4cbb3a56aab94a1eb433b'
p94
g2
sS'5f77118f8679fe4a1ca6ddcaf7a124b58d7606e2'
p95
g2
sS'2797636b98f525dea6142840d2f79fb148626766'
p96
g2
sS'19c5577d0dabfd4d1f99c9cbc120c17fe58e243c'
p97
g2
sS'caf86a8526661290266320743bbc02cfb7fd25c3'
p98
g2
sS'd6bf5698c94299e841813d1528b46b3caac3adc4'
p99
g2
sS'cf924bc262a8bfd29e47eda188093377d234cd2f'
p100
g2
sS'fda4fefd12635759dc5eeb11af8088a2774e05fb'
p101
g2
sS'2f116c50b80267b38bb59dc8211db34e864d8424'
p102
g2
sS'87c9a9e3335064d98cb004daa3ec2b8a67b41590'
p103
g2
sS'9a2ba8a4f5e995011e4156dc340e6f8719472234'
p104
g2
sS'47f284e68d169670094cbd36422511d0885e7132'
p105
g2
sS'ba5f6b69435f70ceaed738906c8ed7a4a87dc61b'
p106
g2
sS'19b718ef41f87f348ac45a90a5c4096ccbd0f7db'
p107
g2
sS'464221a4c419db487424653c38bfa966a686afc3'
p108
g2
sS'ecc9fb0a8fcf54e96df0687f37a9eaa6703b56df'
p109
g2
sS'd198e47f65866887bc0f04be8ac27d81c923163d'
p110
g2
sS'c7378c47927e6aa6e048ab6d581204e8ad0ff47c'
p111
g2
sS'cf37bde44d9594392b626e04f2054feb6b26d345'
p112
g2
sS'b1dbd97f3ca7ebb85bc1a7820971bd15b1046ebc'
p113
g2
sS'50e3f2e1eeaec1793c6be8784ec79c392ff681d2'
p114
g2
sS'b2c13504064896e1cdb71f75000a3842d39f6b8b'
p115
g2
sS'a032b14b4f0215992eda8fa0c12376f3bb574fe0'
p116
g2
sS'eb0b49d3403d61725b045c231723b8a0d75f07ca'
p117
g2
sS'eb0894a1542bc78b09aee678ee2f1f87336f792b'
p118
g2
sS'caea5070494a64e96fa40f16af024d22ed6b961a'
p119
g2
sS'2097993e3e247478a03db58ae9de00e8bc1c9e09'
p120
g2
sS'9abb7c32bbbebf228448619a3ecb8f78f6a6081f'
p121
g2
sS'3eb108100dcae250f47fbfcfc30f180c5311bea9'
p122
g2
sS'de3bc349b2d5711632747fc2092c5607f3a7bc9a'
p123
g2
sS'6b55abcdf46dc18cf123233428c8376bfdef1814'
p124
g2
sS'7e071d1ecb85c203c035751512c4ab14651d2331'
p125
g2
sS'9aaac7a67d7ac26987bcef81c0c08dca48b5ec60'
p126
g2
sS'80112779cfeeb7933578dc00439bb710b331df74'
p127
g2
sS'339ee17b8f5634ee2d58e41ec8c7545e11505ec5'
p128
g2
sS'b9ab31f360b2afbf4f73892bc79c0ebb7de14206'
p129
g2
sS'b783b79c9678728ec798597ed0ba997688325752'
p130
g2
sS'c23a35c90445f5b63c83bd68923c5987caf9362f'
p131
g2
sS'6ec7bdaa0f271cb205e69f9dd444dced14aa5083'
p132
g2
sS'dd091c42680e001cb51e0d3d1ebfdc51bea93f0b'
p133
g2
sS'c599a8a29bbe59ebf2b03596629b38598b15cb36'
p134
g2
sS'aacf81ae39d4f15f6ebb844a6d0bfd0eb6a16c85'
p135
g2
sS'4ffbc7a340db1c1823f7ad6558928b08cf234e5e'
p136
g2
sS'a91d5f59e586ca700d8ae665617dfd1dbd41dda3'
p137
g2
sS'24c93ecd712ec404254ce5c8884d0e1c669adcd5'
p138
g2
sS'dae39a13979d3a53f2fbed680da554db49d9f4c3'
p139
g2
sS'd1aab4904a1160dfaa79b5202546aeaefffe9dae'
p140
g2
sS'49c689276d750dbc78fe7a5d0ff27e6d2278fcd4'
p141
g2
sS'2bafc70a74dcde3eae79c5bbcd1effced46eb970'
p142
g2
sS'16d4dc21cf41101488ae99098b93be671287f122'
p143
g2
sS'6e6ca1d1ae00fc17ffd8cd5465333e4b41d3d357'
p144
g2
sS'efcc42015375e79d27c2a6ac9e290d16d06ccf81'
p145
g2
sS'eefc802fc8e627c1079bb1de1f1ab837275f6c6c'
p146
g2
sS'6cd2721aec75a62bb1ab7c8f3ecd09a611f9ef3f'
p147
g2
sS'6dda4b09a22430e61cd9ee72651ffd4cd9484771'
p148
g2
sS'1771dcb1b89a4abee6327b91b6ab76a08c016191'
p149
g2
sS'a797c847edf7c5bc5eb8a6254a1b3c70d2aa22f7'
p150
g2
sS'c3d20092d0a7fc98cd8c7c4de1ebf979d7f15530'
p151
g2
sS'4921355557cc4c240667c0ad961d2df5d751b535'
p152
g2
sS'ab520203358f7085c8ebca0ff118e6e56675913a'
p153
g2
sS'd90c69e2fbc1bac377fbb29d3d89103146f18a81'
p154
g2
sS'd11f8a0c2e5f0d178e1cb36c37352a6ac1dc4656'
p155
g2
sS'06a21f19b312854e8607dbd7b708e48089d33bd1'
p156
g2
sS'2abbd30c3ccfccbdfcbc6675da1f0617429e3523'
p157
g2
sS'aac3e8ccc8029d4a1d308d852b4724e843867138'
p158
g2
sS'408512cf9e30e88921c38b52c4221f7b0b44ea0b'
p159
g2
sS'9ae04f50b25bb452b66ea7365b4792ff9a561620'
p160
g2
sS'14804ce689497f49b21012f2263828f89df83330'
p161
g2
sS'def41b8b1d815c165fce42d063e6dbdff92ca8c4'
p162
g2
sS'8f0161123afd283b864df59cc2f72a28d3d18814'
p163
g2
sS'b4cd20d5bfa26d7350de7718f6a38e1be705cc5e'
p164
g2
sS'080a2715cf739aba827afd20a78c85a8b1edd2b5'
p165
g2
sS'd087fae1292136982dddbf84bed3f31417a15ed3'
p166
g2
sS'954b559f131a1a801c135463eefbd12d5303eaa2'
p167
g2
sS'57824f17b9c3369546e69d54ff24cd73700e268d'
p168
g2
sS'92af98356b6063a362ed829a9495b96d9579b514'
p169
g2
sS'4b0d6db1b045649c98120c30cd21038a43da4407'
p170
g2
sS'fb96cbede9c129fee1fe8f77dbcf13bd34ef2120'
p171
g2
sS'cdfe31e65f16aac08f710741096b825d728dbc5e'
p172
g2
sS'5fbc435f5b2069fc3a654d890014e3053e20f594'
p173
g2
sS'ffef390bd1ee97c4c42e7072238b4a24d1ec2d79'
p174
g2
sS'024bd96f778b79755b8bb40a0a87139ad3633290'
p175
g2
sS'33a316671cb33b5dce92c72ce9c6658547a472d7'
p176
g2
sS'bd347d776a608330a4a1d38b9e3f25b23184d19a'
p177
g2
sS'9905943232571d61fbca92e9ef7415bd7f40a0c5'
p178
g2
sS'3d9830c3ce1bcd6ea9d8efa492b24ba8523873dd'
p179
g2
sS'134a1b79c61be83e82e9f6592efb99cd5b000e73'
p180
g2
sS'8da5f7c01720b4bbf0a73998e5480ae646d9e70d'
p181
g2
sS'c020a62c01f765828dba37707082f7979dfe9605'
p182
g2
sS'e9ccd19c1c70a164c3b110b03c1abe2716fcae93'
p183
g2
sS'be493bf6543586d42298b3a0a6ada708e8c9a78b'
p184
g2
sS'b2fd0c693997b1aea57800870d13fdf52474610a'
p185
g2
sS'43c2f29cb23c05867ef26eda169e5c1ff2345f49'
p186
g2
sS'5964089840beaf313fff4189934ecc2dc714bdbd'
p187
g2
sS'f95bb74b1129cd68fc0e85374ba046adef8c9837'
p188
g2
sS'e7b9d7eba1641ad1586d9211b7bdc69d1b87b0c1'
p189
g2
sS'1b28d77e08290f0dfddc6701fd2a19eb248ece52'
p190
g2
sS'636b1ba10a31a646f8aef62295748ff351fb7c8c'
p191
g2
sS'e3252c037f71a971c6d3faa8fa83f5a798f95fc5'
p192
g2
sS'401f7b07d38e304c8e8aaafd4ff54e4814a0a320'
p193
g2
sS'2bc41232908881f7d8ba1d4b6dc4eaafd4aad0bd'
p194
g2
sS'ad6f3374385ea7ee90442058eab5ec4e736b347d'
p195
g2
sS'68e82f808540ad733327c5653a98859de34843b9'
p196
g2
sS'6b5fa747b893274385e1fb5c2150826ed8db444c'
p197
g2
sS'e5321351da5845070753512c145468e56132b903'
p198
g2
sS'61d6986fc69ad70fa4d6579467bbc8e5d6a81178'
p199
g2
sS'191453c959dd73f84341b4cae6d75184773daa43'
p200
g2
sS'323610317619a70ad329ca6d1de83eb158ab501e'
p201
g2
sS'd9a1f22edcbfd14fc4db7033019af65539db975b'
p202
g2
sS'6eb60baac3247ac92b57f87319d3e261d24aca6b'
p203
g2
sS'ad781628290a28127ce54d107372691071531bed'
p204
g2
sS'5234a1f726ba264e58095447439d98cdff5ffd9c'
p205
g2
sS'7b26ae210995a6a746dbfb20ede382bee7808dc9'
p206
g2
sS'05e0ce0c07d5c18e722094b190eefaa53e938ddf'
p207
g2
sS'2d89da8864f387e236ff0d90885e47f69e59ebef'
p208
g2
sS'8695f9a1cf0c2771bd83c2a027752195b34d4a4c'
p209
g2
sS'0cc9c05b3aab01488078d39859f640c25bc54d3e'
p210
g2
sS'1a85acef6b98f27621e5f55e395c82691ed89693'
p211
g2
sS'5351fa5f95fdf5e0b8dcbd8757479c4d8fca44ec'
p212
g2
sS'96f10221201ecb16c451b9c442504f3fe1fa6462'
p213
g2
sS'137be4f4ca8272bb190638850a7bd7522160b98d'
p214
g2
sS'f3fd6b568307871bb7213d32412afce8e6f479e2'
p215
g2
sS'009a12e541ecc36015105290c9b43ae1b06c7fb6'
p216
g2
sS'adcfbdda8d26438243a6d9edcf5eae88f77ac787'
p217
g2
sS'f58b8368c537a950341f5b79590fe320a3f997c0'
p218
g2
sS'df8755e5ebec7cda1746d43fc1d9b9e0e3e0b8f1'
p219
g2
sS'c4faf6ecc720ac017593e75e611dd1a901b26be5'
p220
g2
sS'0887d8f9dc7ea41db329cfc6bd7eebf0b26337de'
p221
g2
sS'69f9ad7e643fa72da257d358821072f789dbc3ce'
p222
g2
sS'48c519b0040eaf680c60001daedfa3830b914b2b'
p223
g2
sS'b486ebfdb7928e488ae1778d4711163c774cc5ea'
p224
g2
sS'f7f987ecd8790f80d5f61f97161a54a5f0f2114b'
p225
g2
sS'8c00ab8406956b1d2c432609d4463eac4c4ba1ed'
p226
g2
sS'b2770f20b9a76a86fbec3f7be10b35c9ea1f3637'
p227
g2
sS'1fef6649b381a1ca02298dea517a415965a69cb3'
p228
g2
sS'4b04c027046c4b345c9390273e7689a529bdb0de'
p229
g2
sS'deee5c7886ae8797f3e9ec63dcae8b014e8bcee3'
p230
g2
sS'db2db734803f9381ac3679e2161c788f8c1677dc'
p231
g2
sS'e26ed2dedcf588880ead65b7dfc3e5425e58f641'
p232
g2
sS'370c4a0ed8a6fba9365db775c038fc62c0117e2d'
p233
g2
s.